; Function Attrs: mustprogress uwtable
define noundef nonnull align 8 dereferenceable(64) ptr @_ZNK6icu_7715SimpleFormatter15formatAndAppendEPKPKNS_13UnicodeStringEiRS1_PiiR10UErrorCode(ptr noundef nonnull align 8 dereferenceable(72) %0, ptr noundef readonly %1, i32 noundef %2, ptr noundef nonnull returned align 8 dereferenceable(64) %3, ptr noundef writeonly %4, i32 noundef %5, ptr noundef nonnull align 4 captures(none) dereferenceable(4) %6) local_unnamed_addr #0 align 2 {
  %8 = load i32, ptr %6, align 4, !tbaa !3
  %9 = icmp slt i32 %8, 1
  br i1 %9, label %10, label %48

10:                                               ; preds = %7
  %11 = icmp sgt i32 %2, -1
  %12 = icmp ne ptr %1, null
  %13 = icmp eq i32 %2, 0
  %.not20 = or i1 %12, %13
  %narrow.i.not = and i1 %11, %.not20
  br i1 %narrow.i.not, label %14, label %39

14:                                               ; preds = %10
  %15 = icmp sgt i32 %5, -1
  %16 = icmp ne ptr %4, null
  %17 = icmp eq i32 %5, 0
  %.not23 = or i1 %16, %17
  %narrow.i17.not = and i1 %15, %.not23
  br i1 %narrow.i17.not, label %18, label %39

18:                                               ; preds = %14
  %19 = getelementptr inbounds nuw i8, ptr %0, i64 16
  %20 = load i16, ptr %19, align 8, !tbaa !7
  %21 = and i16 %20, 17
  %.not.i.i = icmp eq i16 %21, 0
  br i1 %.not.i.i, label %22, label %_ZNK6icu_7713UnicodeString9getBufferEv.exit.i

22:                                               ; preds = %18
  %23 = and i16 %20, 2
  %.not2.i.i = icmp eq i16 %23, 0
  br i1 %.not2.i.i, label %26, label %24

24:                                               ; preds = %22
  %25 = getelementptr inbounds nuw i8, ptr %0, i64 18
  br label %_ZNK6icu_7713UnicodeString9getBufferEv.exit.i

26:                                               ; preds = %22
  %27 = getelementptr inbounds nuw i8, ptr %0, i64 32
  %28 = load ptr, ptr %27, align 8, !tbaa !7
  br label %_ZNK6icu_7713UnicodeString9getBufferEv.exit.i

_ZNK6icu_7713UnicodeString9getBufferEv.exit.i:    ; preds = %26, %24, %18
  %.0.i.i = phi ptr [ %25, %24 ], [ %28, %26 ], [ null, %18 ]
  %29 = icmp slt i16 %20, 0
  %30 = ashr i16 %20, 5
  %31 = sext i16 %30 to i32
  %32 = getelementptr inbounds nuw i8, ptr %0, i64 20
  %33 = load i32, ptr %32, align 4
  %34 = select i1 %29, i32 %33, i32 %31
  %35 = icmp eq i32 %34, 0
  br i1 %35, label %_ZNK6icu_7715SimpleFormatter16getArgumentLimitEv.exit.thread, label %_ZNK6icu_7715SimpleFormatter16getArgumentLimitEv.exit

_ZNK6icu_7715SimpleFormatter16getArgumentLimitEv.exit: ; preds = %_ZNK6icu_7713UnicodeString9getBufferEv.exit.i
  %36 = load i16, ptr %.0.i.i, align 2, !tbaa !8
  %37 = zext i16 %36 to i32
  %38 = icmp samesign ult i32 %2, %37
  br i1 %38, label %39, label %_ZNK6icu_7715SimpleFormatter16getArgumentLimitEv.exit.thread

39:                                               ; preds = %_ZNK6icu_7715SimpleFormatter16getArgumentLimitEv.exit, %14, %10
  store i32 1, ptr %6, align 4, !tbaa !3
  br label %48

_ZNK6icu_7715SimpleFormatter16getArgumentLimitEv.exit.thread: ; preds = %_ZNK6icu_7713UnicodeString9getBufferEv.exit.i, %_ZNK6icu_7715SimpleFormatter16getArgumentLimitEv.exit
  br i1 %.not.i.i, label %40, label %_ZNK6icu_7713UnicodeString9getBufferEv.exit

40:                                               ; preds = %_ZNK6icu_7715SimpleFormatter16getArgumentLimitEv.exit.thread
  %41 = and i16 %20, 2
  %.not2.i = icmp eq i16 %41, 0
  br i1 %.not2.i, label %44, label %42

42:                                               ; preds = %40
  %43 = getelementptr inbounds nuw i8, ptr %0, i64 18
  br label %_ZNK6icu_7713UnicodeString9getBufferEv.exit

44:                                               ; preds = %40
  %45 = getelementptr inbounds nuw i8, ptr %0, i64 32
  %46 = load ptr, ptr %45, align 8, !tbaa !7
  br label %_ZNK6icu_7713UnicodeString9getBufferEv.exit

_ZNK6icu_7713UnicodeString9getBufferEv.exit:      ; preds = %_ZNK6icu_7715SimpleFormatter16getArgumentLimitEv.exit.thread, %42, %44
  %.0.i = phi ptr [ %43, %42 ], [ %46, %44 ], [ null, %_ZNK6icu_7715SimpleFormatter16getArgumentLimitEv.exit.thread ]
  %47 = tail call noundef nonnull align 8 dereferenceable(64) ptr @_ZN6icu_7715SimpleFormatter6formatEPKDsiPKPKNS_13UnicodeStringERS3_S5_aPiiR10UErrorCode(ptr noundef %.0.i, i32 noundef %34, ptr noundef %1, ptr noundef nonnull align 8 dereferenceable(64) %3, ptr noundef null, i8 noundef signext 1, ptr noundef %4, i32 noundef %5, ptr noundef nonnull align 4 dereferenceable(4) %6)
  br label %48

48:                                               ; preds = %7, %_ZNK6icu_7713UnicodeString9getBufferEv.exit, %39
  ret ptr %3
}